target datalayout = "e-m:e-p270:32:32-p271:32:32-p272:64:64-i64:64-i128:128-f80:128-n8:16:32:64-S128"
target triple = "x86_64-pc-linux-gnu"

%union.pthread_mutex_t = type { %struct.__pthread_mutex_s }
%struct.__pthread_mutex_s = type { i32, i32, i32, i32, i32, i16, i16, %struct.__pthread_internal_list }
%struct.__pthread_internal_list = type { ptr, ptr }
%struct.itemstats_t = type { i64, i64, i64, i64, i64, i64, i64, i64, i64, i64, i64, i64, i64, i64, i64, i64, i64, i64, i64, i64, i32 }

@lru_locks = external global [256 x %union.pthread_mutex_t], align 16
@itemstats = internal global [256 x %struct.itemstats_t] zeroinitializer, align 16

; Function Attrs: nounwind uwtable
define dso_local void @item_stats_reset() #0 {
  %1 = alloca i32, align 4
  call void @llvm.lifetime.start.p0(i64 4, ptr %1) #9
  store i32 0, ptr %1, align 4, !tbaa !4
  br label %2

2:                                                ; preds = %17, %0
  %3 = load i32, ptr %1, align 4, !tbaa !4
  %4 = icmp slt i32 %3, 256
  br i1 %4, label %5, label %20

5:                                                ; preds = %2
  %6 = load i32, ptr %1, align 4, !tbaa !4
  %7 = sext i32 %6 to i64
  %8 = getelementptr inbounds [256 x %union.pthread_mutex_t], ptr @lru_locks, i64 0, i64 %7
  %9 = call i32 @pthread_mutex_lock(ptr noundef %8) #9
  %10 = load i32, ptr %1, align 4, !tbaa !4
  %11 = sext i32 %10 to i64
  %12 = getelementptr inbounds [256 x %struct.itemstats_t], ptr @itemstats, i64 0, i64 %11
  call void @llvm.memset.p0.i64(ptr align 8 %12, i8 0, i64 168, i1 false)
  %13 = load i32, ptr %1, align 4, !tbaa !4
  %14 = sext i32 %13 to i64
  %15 = getelementptr inbounds [256 x %union.pthread_mutex_t], ptr @lru_locks, i64 0, i64 %14
  %16 = call i32 @pthread_mutex_unlock(ptr noundef %15) #9
  br label %17

17:                                               ; preds = %5
  %18 = load i32, ptr %1, align 4, !tbaa !4
  %19 = add nsw i32 %18, 1
  store i32 %19, ptr %1, align 4, !tbaa !4
  br label %2, !llvm.loop !8

20:                                               ; preds = %2
  call void @llvm.lifetime.end.p0(i64 4, ptr %1) #9
  ret void
}