; Function Attrs: nounwind uwtable
define dso_local void @item_stats_reset() local_unnamed_addr #0 {
  br label %1

1:                                                ; preds = %0, %1
  %indvars.iv = phi i64 [ 0, %0 ], [ %indvars.iv.next, %1 ]
  %2 = getelementptr inbounds nuw [256 x %union.pthread_mutex_t], ptr @lru_locks, i64 0, i64 %indvars.iv
  %3 = tail call i32 @pthread_mutex_lock(ptr noundef nonnull %2) #19
  %4 = getelementptr inbounds nuw [256 x %struct.itemstats_t], ptr @itemstats, i64 0, i64 %indvars.iv
  tail call void @llvm.memset.p0.i64(ptr noundef nonnull align 8 dereferenceable(168) %4, i8 0, i64 168, i1 false)
  %5 = tail call i32 @pthread_mutex_unlock(ptr noundef nonnull %2) #19
  %indvars.iv.next = add nuw nsw i64 %indvars.iv, 1
  %exitcond.not = icmp eq i64 %indvars.iv.next, 256
  br i1 %exitcond.not, label %6, label %1, !llvm.loop !4

6:                                                ; preds = %1
  ret void
}